target datalayout = "e-m:e-p270:32:32-p271:32:32-p272:64:64-i64:64-i128:128-f80:128-n8:16:32:64-S128"
target triple = "x86_64-pc-linux-gnu"

%struct.cached_re_str = type { ptr, ptr, i32, i32, i32, %struct.pg_regex_t }
%struct.pg_regex_t = type { i32, i64, i64, i32, ptr, i32, ptr, ptr }
%struct.varattrib_1b = type { i8, [0 x i8] }
%struct.varattrib_1b_e = type { i8, i8, [0 x i8] }
%struct.anon = type { i32, [0 x i8] }

@num_res = internal global i32 0, align 4
@re_array = internal global [32 x %struct.cached_re_str] zeroinitializer, align 16
@RegexpCacheMemoryContext = internal global ptr null, align 8
@TopMemoryContext = external global ptr, align 8
@.str = private unnamed_addr constant [25 x i8] c"RegexpCacheMemoryContext\00", align 1
@CurrentMemoryContext = external global ptr, align 8
@.str.1 = private unnamed_addr constant [20 x i8] c"RegexpMemoryContext\00", align 1
@.str.2 = private unnamed_addr constant [31 x i8] c"invalid regular expression: %s\00", align 1
@.str.3 = private unnamed_addr constant [9 x i8] c"regexp.c\00", align 1
@__func__.RE_compile_and_cache = private unnamed_addr constant [21 x i8] c"RE_compile_and_cache\00", align 1

; Function Attrs: inlinehint nounwind uwtable
define internal ptr @MemoryContextSwitchTo(ptr noundef %0) #6 {
  %2 = alloca ptr, align 8
  %3 = alloca ptr, align 8
  store ptr %0, ptr %2, align 8
  call void @llvm.lifetime.start.p0(i64 8, ptr %3) #8
  %4 = load ptr, ptr @CurrentMemoryContext, align 8
  store ptr %4, ptr %3, align 8
  %5 = load ptr, ptr %2, align 8
  store ptr %5, ptr @CurrentMemoryContext, align 8
  %6 = load ptr, ptr %3, align 8
  call void @llvm.lifetime.end.p0(i64 8, ptr %3) #8
  ret ptr %6
}

; Function Attrs: nounwind uwtable
define dso_local ptr @RE_compile_and_cache(ptr noundef %0, i32 noundef %1, i32 noundef %2) #0 {
  %4 = alloca ptr, align 8
  %5 = alloca ptr, align 8
  %6 = alloca i32, align 4
  %7 = alloca i32, align 4
  %8 = alloca i32, align 4
  %9 = alloca ptr, align 8
  %10 = alloca ptr, align 8
  %11 = alloca i32, align 4
  %12 = alloca i32, align 4
  %13 = alloca i32, align 4
  %14 = alloca %struct.cached_re_str, align 8
  %15 = alloca [100 x i8], align 16
  %16 = alloca ptr, align 8
  %17 = alloca i32, align 4
  %18 = alloca i32, align 4
  %19 = alloca i32, align 4
  store ptr %0, ptr %5, align 8
  store i32 %1, ptr %6, align 4
  store i32 %2, ptr %7, align 4
  call void @llvm.lifetime.start.p0(i64 4, ptr %8) #8
  %20 = load ptr, ptr %5, align 8
  %21 = getelementptr inbounds nuw %struct.varattrib_1b, ptr %20, i32 0, i32 0
  %22 = load i8, ptr %21, align 1
  %23 = zext i8 %22 to i32
  %24 = icmp eq i32 %23, 1
  br i1 %24, label %25, label %53

25:                                               ; preds = %3
  %26 = load ptr, ptr %5, align 8
  %27 = getelementptr inbounds nuw %struct.varattrib_1b_e, ptr %26, i32 0, i32 1
  %28 = load i8, ptr %27, align 1
  %29 = zext i8 %28 to i32
  %30 = icmp eq i32 %29, 1
  br i1 %30, label %31, label %32

31:                                               ; preds = %25
  br label %49

32:                                               ; preds = %25
  %33 = load ptr, ptr %5, align 8
  %34 = getelementptr inbounds nuw %struct.varattrib_1b_e, ptr %33, i32 0, i32 1
  %35 = load i8, ptr %34, align 1
  %36 = zext i8 %35 to i32
  %37 = and i32 %36, -2
  %38 = icmp eq i32 %37, 2
  br i1 %38, label %39, label %40

39:                                               ; preds = %32
  br label %47

40:                                               ; preds = %32
  %41 = load ptr, ptr %5, align 8
  %42 = getelementptr inbounds nuw %struct.varattrib_1b_e, ptr %41, i32 0, i32 1
  %43 = load i8, ptr %42, align 1
  %44 = zext i8 %43 to i32
  %45 = icmp eq i32 %44, 18
  %46 = select i1 %45, i64 16, i64 0
  br label %47

47:                                               ; preds = %40, %39
  %48 = phi i64 [ 8, %39 ], [ %46, %40 ]
  br label %49

49:                                               ; preds = %47, %31
  %50 = phi i64 [ 8, %31 ], [ %48, %47 ]
  %51 = add i64 2, %50
  %52 = sub i64 %51, 2
  br label %79

53:                                               ; preds = %3
  %54 = load ptr, ptr %5, align 8
  %55 = getelementptr inbounds nuw %struct.varattrib_1b, ptr %54, i32 0, i32 0
  %56 = load i8, ptr %55, align 1
  %57 = zext i8 %56 to i32
  %58 = and i32 %57, 1
  %59 = icmp eq i32 %58, 1
  br i1 %59, label %60, label %69

60:                                               ; preds = %53
  %61 = load ptr, ptr %5, align 8
  %62 = getelementptr inbounds nuw %struct.varattrib_1b, ptr %61, i32 0, i32 0
  %63 = load i8, ptr %62, align 1
  %64 = zext i8 %63 to i32
  %65 = ashr i32 %64, 1
  %66 = and i32 %65, 127
  %67 = sext i32 %66 to i64
  %68 = sub i64 %67, 1
  br label %77

69:                                               ; preds = %53
  %70 = load ptr, ptr %5, align 8
  %71 = getelementptr inbounds nuw %struct.anon, ptr %70, i32 0, i32 0
  %72 = load i32, ptr %71, align 4
  %73 = lshr i32 %72, 2
  %74 = and i32 %73, 1073741823
  %75 = sub i32 %74, 4
  %76 = zext i32 %75 to i64
  br label %77

77:                                               ; preds = %69, %60
  %78 = phi i64 [ %68, %60 ], [ %76, %69 ]
  br label %79

79:                                               ; preds = %77, %49
  %80 = phi i64 [ %52, %49 ], [ %78, %77 ]
  %81 = trunc i64 %80 to i32
  store i32 %81, ptr %8, align 4
  call void @llvm.lifetime.start.p0(i64 8, ptr %9) #8
  %82 = load ptr, ptr %5, align 8
  %83 = getelementptr inbounds nuw %struct.varattrib_1b, ptr %82, i32 0, i32 0
  %84 = load i8, ptr %83, align 1
  %85 = zext i8 %84 to i32
  %86 = and i32 %85, 1
  %87 = icmp eq i32 %86, 1
  br i1 %87, label %88, label %92

88:                                               ; preds = %79
  %89 = load ptr, ptr %5, align 8
  %90 = getelementptr inbounds nuw %struct.varattrib_1b, ptr %89, i32 0, i32 1
  %91 = getelementptr inbounds [0 x i8], ptr %90, i64 0, i64 0
  br label %96

92:                                               ; preds = %79
  %93 = load ptr, ptr %5, align 8
  %94 = getelementptr inbounds nuw %struct.anon, ptr %93, i32 0, i32 1
  %95 = getelementptr inbounds [0 x i8], ptr %94, i64 0, i64 0
  br label %96

96:                                               ; preds = %92, %88
  %97 = phi ptr [ %91, %88 ], [ %95, %92 ]
  store ptr %97, ptr %9, align 8
  call void @llvm.lifetime.start.p0(i64 8, ptr %10) #8
  call void @llvm.lifetime.start.p0(i64 4, ptr %11) #8
  call void @llvm.lifetime.start.p0(i64 4, ptr %12) #8
  call void @llvm.lifetime.start.p0(i64 4, ptr %13) #8
  call void @llvm.lifetime.start.p0(i64 96, ptr %14) #8
  call void @llvm.lifetime.start.p0(i64 100, ptr %15) #8
  call void @llvm.lifetime.start.p0(i64 8, ptr %16) #8
  store i32 0, ptr %12, align 4
  br label %98

98:                                               ; preds = %149, %96
  %99 = load i32, ptr %12, align 4
  %100 = load i32, ptr @num_res, align 4
  %101 = icmp slt i32 %99, %100
  br i1 %101, label %102, label %152

102:                                              ; preds = %98
  %103 = load i32, ptr %12, align 4
  %104 = sext i32 %103 to i64
  %105 = getelementptr inbounds [32 x %struct.cached_re_str], ptr @re_array, i64 0, i64 %104
  %106 = getelementptr inbounds nuw %struct.cached_re_str, ptr %105, i32 0, i32 2
  %107 = load i32, ptr %106, align 16
  %108 = load i32, ptr %8, align 4
  %109 = icmp eq i32 %107, %108
  br i1 %109, label %110, label %148

110:                                              ; preds = %102
  %111 = load i32, ptr %12, align 4
  %112 = sext i32 %111 to i64
  %113 = getelementptr inbounds [32 x %struct.cached_re_str], ptr @re_array, i64 0, i64 %112
  %114 = getelementptr inbounds nuw %struct.cached_re_str, ptr %113, i32 0, i32 3
  %115 = load i32, ptr %114, align 4
  %116 = load i32, ptr %6, align 4
  %117 = icmp eq i32 %115, %116
  br i1 %117, label %118, label %148

118:                                              ; preds = %110
  %119 = load i32, ptr %12, align 4
  %120 = sext i32 %119 to i64
  %121 = getelementptr inbounds [32 x %struct.cached_re_str], ptr @re_array, i64 0, i64 %120
  %122 = getelementptr inbounds nuw %struct.cached_re_str, ptr %121, i32 0, i32 4
  %123 = load i32, ptr %122, align 8
  %124 = load i32, ptr %7, align 4
  %125 = icmp eq i32 %123, %124
  br i1 %125, label %126, label %148

126:                                              ; preds = %118
  %127 = load i32, ptr %12, align 4
  %128 = sext i32 %127 to i64
  %129 = getelementptr inbounds [32 x %struct.cached_re_str], ptr @re_array, i64 0, i64 %128
  %130 = getelementptr inbounds nuw %struct.cached_re_str, ptr %129, i32 0, i32 1
  %131 = load ptr, ptr %130, align 8
  %132 = load ptr, ptr %9, align 8
  %133 = load i32, ptr %8, align 4
  %134 = sext i32 %133 to i64
  %135 = call i32 @memcmp(ptr noundef %131, ptr noundef %132, i64 noundef %134) #9
  %136 = icmp eq i32 %135, 0
  br i1 %136, label %137, label %148

137:                                              ; preds = %126
  %138 = load i32, ptr %12, align 4
  %139 = icmp sgt i32 %138, 0
  br i1 %139, label %140, label %147

140:                                              ; preds = %137
  %141 = load i32, ptr %12, align 4
  %142 = sext i32 %141 to i64
  %143 = getelementptr inbounds [32 x %struct.cached_re_str], ptr @re_array, i64 0, i64 %142
  call void @llvm.memcpy.p0.p0.i64(ptr align 8 %14, ptr align 16 %143, i64 96, i1 false)
  %144 = load i32, ptr %12, align 4
  %145 = sext i32 %144 to i64
  %146 = mul i64 %145, 96
  call void @llvm.memmove.p0.p0.i64(ptr align 16 getelementptr inbounds ([32 x %struct.cached_re_str], ptr @re_array, i64 0, i64 1), ptr align 16 @re_array, i64 %146, i1 false)
  call void @llvm.memcpy.p0.p0.i64(ptr align 16 @re_array, ptr align 8 %14, i64 96, i1 false)
  br label %147

147:                                              ; preds = %140, %137
  store ptr getelementptr inbounds nuw (%struct.cached_re_str, ptr @re_array, i32 0, i32 5), ptr %4, align 8
  store i32 1, ptr %17, align 4
  br label %264

148:                                              ; preds = %126, %118, %110, %102
  br label %149

149:                                              ; preds = %148
  %150 = load i32, ptr %12, align 4
  %151 = add i32 %150, 1
  store i32 %151, ptr %12, align 4
  br label %98, !llvm.loop !4

152:                                              ; preds = %98
  %153 = load ptr, ptr @RegexpCacheMemoryContext, align 8
  %154 = icmp eq ptr %153, null
  %155 = zext i1 %154 to i32
  %156 = icmp ne i32 %155, 0
  %157 = zext i1 %156 to i32
  %158 = sext i32 %157 to i64
  %159 = call i64 @llvm.expect.i64(i64 %158, i64 0)
  %160 = icmp ne i64 %159, 0
  br i1 %160, label %161, label %167

161:                                              ; preds = %152
  br label %162

162:                                              ; preds = %161
  br label %163

163:                                              ; preds = %162
  br label %164

164:                                              ; preds = %163
  store i32 1, ptr %18, align 4
  %165 = load ptr, ptr @TopMemoryContext, align 8
  %166 = call ptr @AllocSetContextCreateInternal(ptr noundef %165, ptr noundef @.str, i64 noundef 0, i64 noundef 1024, i64 noundef 8192)
  store ptr %166, ptr @RegexpCacheMemoryContext, align 8
  br label %167

167:                                              ; preds = %164, %152
  %168 = load i32, ptr %8, align 4
  %169 = add i32 %168, 1
  %170 = sext i32 %169 to i64
  %171 = mul i64 %170, 4
  %172 = call ptr @palloc(i64 noundef %171)
  store ptr %172, ptr %10, align 8
  %173 = load ptr, ptr %9, align 8
  %174 = load ptr, ptr %10, align 8
  %175 = load i32, ptr %8, align 4
  %176 = call i32 @pg_mb2wchar_with_len(ptr noundef %173, ptr noundef %174, i32 noundef %175)
  store i32 %176, ptr %11, align 4
  br label %177

177:                                              ; preds = %167
  br label %178

178:                                              ; preds = %177
  br label %179

179:                                              ; preds = %178
  store i32 1, ptr %19, align 4
  %180 = load ptr, ptr @CurrentMemoryContext, align 8
  %181 = call ptr @AllocSetContextCreateInternal(ptr noundef %180, ptr noundef @.str.1, i64 noundef 0, i64 noundef 1024, i64 noundef 8192)
  %182 = getelementptr inbounds nuw %struct.cached_re_str, ptr %14, i32 0, i32 0
  store ptr %181, ptr %182, align 8
  %183 = getelementptr inbounds nuw %struct.cached_re_str, ptr %14, i32 0, i32 0
  %184 = load ptr, ptr %183, align 8
  %185 = call ptr @MemoryContextSwitchTo(ptr noundef %184)
  store ptr %185, ptr %16, align 8
  %186 = getelementptr inbounds nuw %struct.cached_re_str, ptr %14, i32 0, i32 5
  %187 = load ptr, ptr %10, align 8
  %188 = load i32, ptr %11, align 4
  %189 = sext i32 %188 to i64
  %190 = load i32, ptr %6, align 4
  %191 = load i32, ptr %7, align 4
  %192 = call i32 @pg_regcomp(ptr noundef %186, ptr noundef %187, i64 noundef %189, i32 noundef %190, i32 noundef %191)
  store i32 %192, ptr %13, align 4
  %193 = load ptr, ptr %10, align 8
  call void @pfree(ptr noundef %193)
  %194 = load i32, ptr %13, align 4
  %195 = icmp ne i32 %194, 0
  br i1 %195, label %196, label %213

196:                                              ; preds = %179
  %197 = load i32, ptr %13, align 4
  %198 = getelementptr inbounds nuw %struct.cached_re_str, ptr %14, i32 0, i32 5
  %199 = getelementptr inbounds [100 x i8], ptr %15, i64 0, i64 0
  %200 = call i64 @pg_regerror(i32 noundef %197, ptr noundef %198, ptr noundef %199, i64 noundef 100)
  br label %201

201:                                              ; preds = %196
  br i1 true, label %202, label %204

202:                                              ; preds = %201
  %203 = call zeroext i1 @errstart_cold(i32 noundef 21, ptr noundef null) #10
  br i1 %203, label %206, label %210

204:                                              ; preds = %201
  %205 = call zeroext i1 @errstart(i32 noundef 21, ptr noundef null)
  br i1 %205, label %206, label %210

206:                                              ; preds = %204, %202
  %207 = call i32 @errcode(i32 noundef 302252162)
  %208 = getelementptr inbounds [100 x i8], ptr %15, i64 0, i64 0
  %209 = call i32 (ptr, ...) @errmsg(ptr noundef @.str.2, ptr noundef %208)
  call void @errfinish(ptr noundef @.str.3, i32 noundef 223, ptr noundef @__func__.RE_compile_and_cache)
  br label %210

210:                                              ; preds = %206, %204, %202
  unreachable

211:                                              ; No predecessors!
  br label %212

212:                                              ; preds = %211
  br label %213

213:                                              ; preds = %212, %179
  %214 = load i32, ptr %8, align 4
  %215 = add i32 %214, 1
  %216 = sext i32 %215 to i64
  %217 = call ptr @palloc(i64 noundef %216)
  %218 = getelementptr inbounds nuw %struct.cached_re_str, ptr %14, i32 0, i32 1
  store ptr %217, ptr %218, align 8
  %219 = getelementptr inbounds nuw %struct.cached_re_str, ptr %14, i32 0, i32 1
  %220 = load ptr, ptr %219, align 8
  %221 = load ptr, ptr %9, align 8
  %222 = load i32, ptr %8, align 4
  %223 = sext i32 %222 to i64
  call void @llvm.memcpy.p0.p0.i64(ptr align 1 %220, ptr align 1 %221, i64 %223, i1 false)
  %224 = getelementptr inbounds nuw %struct.cached_re_str, ptr %14, i32 0, i32 1
  %225 = load ptr, ptr %224, align 8
  %226 = load i32, ptr %8, align 4
  %227 = sext i32 %226 to i64
  %228 = getelementptr inbounds i8, ptr %225, i64 %227
  store i8 0, ptr %228, align 1
  %229 = getelementptr inbounds nuw %struct.cached_re_str, ptr %14, i32 0, i32 0
  %230 = load ptr, ptr %229, align 8
  %231 = getelementptr inbounds nuw %struct.cached_re_str, ptr %14, i32 0, i32 1
  %232 = load ptr, ptr %231, align 8
  call void @MemoryContextSetIdentifier(ptr noundef %230, ptr noundef %232)
  %233 = load i32, ptr %8, align 4
  %234 = getelementptr inbounds nuw %struct.cached_re_str, ptr %14, i32 0, i32 2
  store i32 %233, ptr %234, align 8
  %235 = load i32, ptr %6, align 4
  %236 = getelementptr inbounds nuw %struct.cached_re_str, ptr %14, i32 0, i32 3
  store i32 %235, ptr %236, align 4
  %237 = load i32, ptr %7, align 4
  %238 = getelementptr inbounds nuw %struct.cached_re_str, ptr %14, i32 0, i32 4
  store i32 %237, ptr %238, align 8
  %239 = load i32, ptr @num_res, align 4
  %240 = icmp sge i32 %239, 32
  br i1 %240, label %241, label %249

241:                                              ; preds = %213
  %242 = load i32, ptr @num_res, align 4
  %243 = add i32 %242, -1
  store i32 %243, ptr @num_res, align 4
  %244 = load i32, ptr @num_res, align 4
  %245 = sext i32 %244 to i64
  %246 = getelementptr inbounds [32 x %struct.cached_re_str], ptr @re_array, i64 0, i64 %245
  %247 = getelementptr inbounds nuw %struct.cached_re_str, ptr %246, i32 0, i32 0
  %248 = load ptr, ptr %247, align 16
  call void @MemoryContextDelete(ptr noundef %248)
  br label %249

249:                                              ; preds = %241, %213
  %250 = getelementptr inbounds nuw %struct.cached_re_str, ptr %14, i32 0, i32 0
  %251 = load ptr, ptr %250, align 8
  %252 = load ptr, ptr @RegexpCacheMemoryContext, align 8
  call void @MemoryContextSetParent(ptr noundef %251, ptr noundef %252)
  %253 = load i32, ptr @num_res, align 4
  %254 = icmp sgt i32 %253, 0
  br i1 %254, label %255, label %259

255:                                              ; preds = %249
  %256 = load i32, ptr @num_res, align 4
  %257 = sext i32 %256 to i64
  %258 = mul i64 %257, 96
  call void @llvm.memmove.p0.p0.i64(ptr align 16 getelementptr inbounds ([32 x %struct.cached_re_str], ptr @re_array, i64 0, i64 1), ptr align 16 @re_array, i64 %258, i1 false)
  br label %259

259:                                              ; preds = %255, %249
  call void @llvm.memcpy.p0.p0.i64(ptr align 16 @re_array, ptr align 8 %14, i64 96, i1 false)
  %260 = load i32, ptr @num_res, align 4
  %261 = add i32 %260, 1
  store i32 %261, ptr @num_res, align 4
  %262 = load ptr, ptr %16, align 8
  %263 = call ptr @MemoryContextSwitchTo(ptr noundef %262)
  store ptr getelementptr inbounds nuw (%struct.cached_re_str, ptr @re_array, i32 0, i32 5), ptr %4, align 8
  store i32 1, ptr %17, align 4
  br label %264

264:                                              ; preds = %259, %147
  call void @llvm.lifetime.end.p0(i64 8, ptr %16) #8
  call void @llvm.lifetime.end.p0(i64 100, ptr %15) #8
  call void @llvm.lifetime.end.p0(i64 96, ptr %14) #8
  call void @llvm.lifetime.end.p0(i64 4, ptr %13) #8
  call void @llvm.lifetime.end.p0(i64 4, ptr %12) #8
  call void @llvm.lifetime.end.p0(i64 4, ptr %11) #8
  call void @llvm.lifetime.end.p0(i64 8, ptr %10) #8
  call void @llvm.lifetime.end.p0(i64 8, ptr %9) #8
  call void @llvm.lifetime.end.p0(i64 4, ptr %8) #8
  %265 = load ptr, ptr %4, align 8
  ret ptr %265
}