; Function Attrs: nounwind uwtable
define dso_local nonnull ptr @RE_compile_and_cache(ptr noundef %0, i32 noundef %1, i32 noundef %2) local_unnamed_addr #0 {
  %4 = alloca %struct.cached_re_str, align 8
  %5 = alloca [100 x i8], align 16
  %6 = load i8, ptr %0, align 1
  %7 = zext i8 %6 to i32
  %8 = icmp eq i8 %6, 1
  br i1 %8, label %9, label %18

9:                                                ; preds = %3
  %10 = getelementptr inbounds nuw i8, ptr %0, i64 1
  %11 = load i8, ptr %10, align 1
  %12 = icmp eq i8 %11, 1
  %13 = and i8 %11, -2
  %14 = icmp eq i8 %13, 2
  %or.cond = or i1 %12, %14
  %15 = icmp eq i8 %11, 18
  %16 = select i1 %15, i32 16, i32 0
  %17 = select i1 %or.cond, i32 8, i32 %16
  br label %27

18:                                               ; preds = %3
  %19 = and i32 %7, 1
  %.not = icmp eq i32 %19, 0
  br i1 %.not, label %23, label %20

20:                                               ; preds = %18
  %21 = lshr i32 %7, 1
  %22 = add nsw i32 %21, -1
  br label %27

23:                                               ; preds = %18
  %24 = load i32, ptr %0, align 4
  %25 = lshr i32 %24, 2
  %26 = add nsw i32 %25, -4
  br label %27

27:                                               ; preds = %20, %23, %9
  %28 = phi i32 [ %17, %9 ], [ %22, %20 ], [ %26, %23 ]
  %29 = and i8 %6, 1
  %.not49 = icmp eq i8 %29, 0
  %.v = select i1 %.not49, i64 4, i64 1
  %30 = getelementptr inbounds nuw i8, ptr %0, i64 %.v
  call void @llvm.lifetime.start.p0(i64 96, ptr nonnull %4) #9
  call void @llvm.lifetime.start.p0(i64 100, ptr nonnull %5) #9
  %31 = load i32, ptr @num_res, align 4
  %32 = icmp sgt i32 %31, 0
  br i1 %32, label %.lr.ph, label %._crit_edge

.lr.ph:                                           ; preds = %27
  %33 = sext i32 %28 to i64
  %wide.trip.count = zext nneg i32 %31 to i64
  br label %34

34:                                               ; preds = %.lr.ph, %54
  %indvars.iv = phi i64 [ 0, %.lr.ph ], [ %indvars.iv.next, %54 ]
  %35 = getelementptr inbounds nuw [32 x %struct.cached_re_str], ptr @re_array, i64 0, i64 %indvars.iv
  %36 = getelementptr inbounds nuw i8, ptr %35, i64 16
  %37 = load i32, ptr %36, align 16
  %38 = icmp eq i32 %37, %28
  br i1 %38, label %39, label %54

39:                                               ; preds = %34
  %40 = getelementptr inbounds nuw i8, ptr %35, i64 20
  %41 = load i32, ptr %40, align 4
  %42 = icmp eq i32 %41, %1
  br i1 %42, label %43, label %54

43:                                               ; preds = %39
  %44 = getelementptr inbounds nuw i8, ptr %35, i64 24
  %45 = load i32, ptr %44, align 8
  %46 = icmp eq i32 %45, %2
  br i1 %46, label %47, label %54

47:                                               ; preds = %43
  %48 = getelementptr inbounds nuw i8, ptr %35, i64 8
  %49 = load ptr, ptr %48, align 8
  %bcmp = tail call i32 @bcmp(ptr %49, ptr nonnull %30, i64 %33)
  %50 = icmp eq i32 %bcmp, 0
  br i1 %50, label %51, label %54

51:                                               ; preds = %47
  %.not60 = icmp eq i64 %indvars.iv, 0
  br i1 %.not60, label %105, label %52

52:                                               ; preds = %51
  call void @llvm.memcpy.p0.p0.i64(ptr noundef nonnull align 8 dereferenceable(96) %4, ptr noundef nonnull align 16 dereferenceable(96) %35, i64 96, i1 false)
  %53 = mul nuw nsw i64 %indvars.iv, 96
  tail call void @llvm.memmove.p0.p0.i64(ptr nonnull align 16 getelementptr inbounds nuw (i8, ptr @re_array, i64 96), ptr nonnull align 16 @re_array, i64 %53, i1 false)
  call void @llvm.memcpy.p0.p0.i64(ptr noundef nonnull align 16 dereferenceable(96) @re_array, ptr noundef nonnull align 8 dereferenceable(96) %4, i64 96, i1 false)
  br label %105

54:                                               ; preds = %34, %39, %43, %47
  %indvars.iv.next = add nuw nsw i64 %indvars.iv, 1
  %exitcond.not = icmp eq i64 %indvars.iv.next, %wide.trip.count
  br i1 %exitcond.not, label %._crit_edge, label %34, !llvm.loop !4

._crit_edge:                                      ; preds = %54, %27
  %55 = load ptr, ptr @RegexpCacheMemoryContext, align 8
  %56 = icmp eq ptr %55, null
  br i1 %56, label %57, label %60, !prof !6

57:                                               ; preds = %._crit_edge
  %58 = load ptr, ptr @TopMemoryContext, align 8
  %59 = tail call ptr @AllocSetContextCreateInternal(ptr noundef %58, ptr noundef nonnull @.str, i64 noundef 0, i64 noundef 1024, i64 noundef 8192) #9
  store ptr %59, ptr @RegexpCacheMemoryContext, align 8
  br label %60

60:                                               ; preds = %57, %._crit_edge
  %61 = add nsw i32 %28, 1
  %62 = sext i32 %61 to i64
  %63 = shl nsw i64 %62, 2
  %64 = tail call ptr @palloc(i64 noundef %63) #9
  %65 = tail call i32 @pg_mb2wchar_with_len(ptr noundef nonnull %30, ptr noundef %64, i32 noundef %28) #9
  %66 = load ptr, ptr @CurrentMemoryContext, align 8
  %67 = tail call ptr @AllocSetContextCreateInternal(ptr noundef %66, ptr noundef nonnull @.str.1, i64 noundef 0, i64 noundef 1024, i64 noundef 8192) #9
  store ptr %67, ptr %4, align 8
  %68 = load ptr, ptr @CurrentMemoryContext, align 8
  store ptr %67, ptr @CurrentMemoryContext, align 8
  %69 = getelementptr inbounds nuw i8, ptr %4, i64 32
  %70 = sext i32 %65 to i64
  %71 = call i32 @pg_regcomp(ptr noundef nonnull %69, ptr noundef %64, i64 noundef %70, i32 noundef %1, i32 noundef %2) #9
  call void @pfree(ptr noundef %64) #9
  %.not50 = icmp eq i32 %71, 0
  br i1 %.not50, label %77, label %72

72:                                               ; preds = %60
  %73 = call i64 @pg_regerror(i32 noundef %71, ptr noundef nonnull %69, ptr noundef nonnull %5, i64 noundef 100) #9
  %74 = call zeroext i1 @errstart_cold(i32 noundef 21, ptr noundef null) #10
  call void @llvm.assume(i1 %74)
  %75 = call i32 @errcode(i32 noundef 302252162) #9
  %76 = call i32 (ptr, ...) @errmsg(ptr noundef nonnull @.str.2, ptr noundef nonnull %5) #9
  call void @errfinish(ptr noundef nonnull @.str.3, i32 noundef 223, ptr noundef nonnull @__func__.RE_compile_and_cache) #9
  unreachable

77:                                               ; preds = %60
  %78 = call ptr @palloc(i64 noundef %62) #9
  %79 = getelementptr inbounds nuw i8, ptr %4, i64 8
  store ptr %78, ptr %79, align 8
  %80 = sext i32 %28 to i64
  call void @llvm.memcpy.p0.p0.i64(ptr align 1 %78, ptr nonnull align 1 %30, i64 %80, i1 false)
  %81 = load ptr, ptr %79, align 8
  %82 = getelementptr inbounds i8, ptr %81, i64 %80
  store i8 0, ptr %82, align 1
  %83 = load ptr, ptr %4, align 8
  %84 = load ptr, ptr %79, align 8
  call void @MemoryContextSetIdentifier(ptr noundef %83, ptr noundef %84) #9
  %85 = getelementptr inbounds nuw i8, ptr %4, i64 16
  store i32 %28, ptr %85, align 8
  %86 = getelementptr inbounds nuw i8, ptr %4, i64 20
  store i32 %1, ptr %86, align 4
  %87 = getelementptr inbounds nuw i8, ptr %4, i64 24
  store i32 %2, ptr %87, align 8
  %88 = load i32, ptr @num_res, align 4
  %89 = icmp sgt i32 %88, 31
  br i1 %89, label %90, label %95

90:                                               ; preds = %77
  %91 = add nsw i32 %88, -1
  store i32 %91, ptr @num_res, align 4
  %92 = zext nneg i32 %91 to i64
  %93 = getelementptr inbounds nuw [32 x %struct.cached_re_str], ptr @re_array, i64 0, i64 %92
  %94 = load ptr, ptr %93, align 16
  call void @MemoryContextDelete(ptr noundef %94) #9
  br label %95

95:                                               ; preds = %90, %77
  %96 = load ptr, ptr %4, align 8
  %97 = load ptr, ptr @RegexpCacheMemoryContext, align 8
  call void @MemoryContextSetParent(ptr noundef %96, ptr noundef %97) #9
  %98 = load i32, ptr @num_res, align 4
  %99 = icmp sgt i32 %98, 0
  br i1 %99, label %100, label %103

100:                                              ; preds = %95
  %101 = zext nneg i32 %98 to i64
  %102 = mul nuw nsw i64 %101, 96
  call void @llvm.memmove.p0.p0.i64(ptr nonnull align 16 getelementptr inbounds nuw (i8, ptr @re_array, i64 96), ptr nonnull align 16 @re_array, i64 %102, i1 false)
  br label %103

103:                                              ; preds = %100, %95
  call void @llvm.memcpy.p0.p0.i64(ptr noundef nonnull align 16 dereferenceable(96) @re_array, ptr noundef nonnull align 8 dereferenceable(96) %4, i64 96, i1 false)
  %104 = add i32 %98, 1
  store i32 %104, ptr @num_res, align 4
  store ptr %68, ptr @CurrentMemoryContext, align 8
  br label %105

105:                                              ; preds = %51, %52, %103
  call void @llvm.lifetime.end.p0(i64 100, ptr nonnull %5) #9
  call void @llvm.lifetime.end.p0(i64 96, ptr nonnull %4) #9
  ret ptr getelementptr inbounds nuw (i8, ptr @re_array, i64 32)
}